target datalayout = "e-m:e-p270:32:32-p271:32:32-p272:64:64-i64:64-i128:128-f80:128-n8:16:32:64-S128"
target triple = "x86_64-pc-linux-gnu"

@PropertyList = internal constant [6 x ptr] [ptr @CR_Hiragana, ptr @CR_Katakana, ptr @CR_Han, ptr @CR_Latin, ptr @CR_Greek, ptr @CR_Cyrillic], align 16

; Function Attrs: nounwind sspstrong uwtable
define internal i32 @get_ctype_code_range(i32 noundef %0, ptr noundef %1, ptr noundef %2, ptr noundef %3) #0 {
  %5 = alloca i32, align 4
  %6 = alloca i32, align 4
  %7 = alloca ptr, align 8
  %8 = alloca ptr, align 8
  %9 = alloca ptr, align 8
  store i32 %0, ptr %6, align 4, !tbaa !17
  store ptr %1, ptr %7, align 8, !tbaa !32
  store ptr %2, ptr %8, align 8, !tbaa !34
  store ptr %3, ptr %9, align 8, !tbaa !14
  %10 = load i32, ptr %6, align 4, !tbaa !17
  %11 = icmp ule i32 %10, 14
  br i1 %11, label %12, label %13

12:                                               ; preds = %4
  store i32 -2, ptr %5, align 4
  br label %26

13:                                               ; preds = %4
  %14 = load ptr, ptr %7, align 8, !tbaa !32
  store i32 128, ptr %14, align 4, !tbaa !17
  %15 = load i32, ptr %6, align 4, !tbaa !17
  %16 = sub i32 %15, 15
  store i32 %16, ptr %6, align 4, !tbaa !17
  %17 = load i32, ptr %6, align 4, !tbaa !17
  %18 = icmp uge i32 %17, 6
  br i1 %18, label %19, label %20

19:                                               ; preds = %13
  store i32 -6, ptr %5, align 4
  br label %26

20:                                               ; preds = %13
  %21 = load i32, ptr %6, align 4, !tbaa !17
  %22 = zext i32 %21 to i64
  %23 = getelementptr inbounds nuw [6 x ptr], ptr @PropertyList, i64 0, i64 %22
  %24 = load ptr, ptr %23, align 8, !tbaa !32
  %25 = load ptr, ptr %8, align 8, !tbaa !34
  store ptr %24, ptr %25, align 8, !tbaa !32
  store i32 0, ptr %5, align 4
  br label %26

26:                                               ; preds = %20, %19, %12
  %27 = load i32, ptr %5, align 4
  ret i32 %27
}